target datalayout = "e-m:e-p270:32:32-p271:32:32-p272:64:64-i64:64-i128:128-f80:128-n8:16:32:64-S128"
target triple = "x86_64-pc-linux-gnu"

; Function Attrs: nounwind uwtable
define internal i32 @uv__utf8_decode1_slow(ptr noundef %0, ptr noundef %1, i32 noundef %2) #0 {
  %4 = alloca i32, align 4
  %5 = alloca ptr, align 8
  %6 = alloca ptr, align 8
  %7 = alloca i32, align 4
  %8 = alloca i32, align 4
  %9 = alloca i32, align 4
  %10 = alloca i32, align 4
  %11 = alloca i32, align 4
  %12 = alloca i32, align 4
  store ptr %0, ptr %5, align 8, !tbaa !4
  store ptr %1, ptr %6, align 8, !tbaa !9
  store i32 %2, ptr %7, align 4, !tbaa !12
  call void @llvm.lifetime.start.p0(i64 4, ptr %8) #2
  call void @llvm.lifetime.start.p0(i64 4, ptr %9) #2
  call void @llvm.lifetime.start.p0(i64 4, ptr %10) #2
  call void @llvm.lifetime.start.p0(i64 4, ptr %11) #2
  %13 = load i32, ptr %7, align 4, !tbaa !12
  %14 = icmp ugt i32 %13, 247
  br i1 %14, label %15, label %16

15:                                               ; preds = %3
  store i32 -1, ptr %4, align 4
  store i32 1, ptr %12, align 4
  br label %120

16:                                               ; preds = %3
  %17 = load ptr, ptr %6, align 8, !tbaa !9
  %18 = load ptr, ptr %5, align 8, !tbaa !4
  %19 = load ptr, ptr %18, align 8, !tbaa !9
  %20 = ptrtoint ptr %17 to i64
  %21 = ptrtoint ptr %19 to i64
  %22 = sub i64 %20, %21
  switch i64 %22, label %23 [
    i64 2, label %45
    i64 1, label %63
    i64 0, label %76
  ]

23:                                               ; preds = %16
  %24 = load i32, ptr %7, align 4, !tbaa !12
  %25 = icmp ugt i32 %24, 239
  br i1 %25, label %26, label %44

26:                                               ; preds = %23
  store i32 65536, ptr %11, align 4, !tbaa !12
  %27 = load i32, ptr %7, align 4, !tbaa !12
  %28 = and i32 %27, 7
  store i32 %28, ptr %7, align 4, !tbaa !12
  %29 = load ptr, ptr %5, align 8, !tbaa !4
  %30 = load ptr, ptr %29, align 8, !tbaa !9
  %31 = getelementptr inbounds nuw i8, ptr %30, i32 1
  store ptr %31, ptr %29, align 8, !tbaa !9
  %32 = load i8, ptr %30, align 1, !tbaa !11
  %33 = zext i8 %32 to i32
  store i32 %33, ptr %8, align 4, !tbaa !12
  %34 = load ptr, ptr %5, align 8, !tbaa !4
  %35 = load ptr, ptr %34, align 8, !tbaa !9
  %36 = getelementptr inbounds nuw i8, ptr %35, i32 1
  store ptr %36, ptr %34, align 8, !tbaa !9
  %37 = load i8, ptr %35, align 1, !tbaa !11
  %38 = zext i8 %37 to i32
  store i32 %38, ptr %9, align 4, !tbaa !12
  %39 = load ptr, ptr %5, align 8, !tbaa !4
  %40 = load ptr, ptr %39, align 8, !tbaa !9
  %41 = getelementptr inbounds nuw i8, ptr %40, i32 1
  store ptr %41, ptr %39, align 8, !tbaa !9
  %42 = load i8, ptr %40, align 1, !tbaa !11
  %43 = zext i8 %42 to i32
  store i32 %43, ptr %10, align 4, !tbaa !12
  br label %77

44:                                               ; preds = %23
  br label %45

45:                                               ; preds = %16, %44
  %46 = load i32, ptr %7, align 4, !tbaa !12
  %47 = icmp ugt i32 %46, 223
  br i1 %47, label %48, label %62

48:                                               ; preds = %45
  store i32 2048, ptr %11, align 4, !tbaa !12
  %49 = load i32, ptr %7, align 4, !tbaa !12
  %50 = and i32 %49, 15
  %51 = or i32 128, %50
  store i32 %51, ptr %8, align 4, !tbaa !12
  %52 = load ptr, ptr %5, align 8, !tbaa !4
  %53 = load ptr, ptr %52, align 8, !tbaa !9
  %54 = getelementptr inbounds nuw i8, ptr %53, i32 1
  store ptr %54, ptr %52, align 8, !tbaa !9
  %55 = load i8, ptr %53, align 1, !tbaa !11
  %56 = zext i8 %55 to i32
  store i32 %56, ptr %9, align 4, !tbaa !12
  %57 = load ptr, ptr %5, align 8, !tbaa !4
  %58 = load ptr, ptr %57, align 8, !tbaa !9
  %59 = getelementptr inbounds nuw i8, ptr %58, i32 1
  store ptr %59, ptr %57, align 8, !tbaa !9
  %60 = load i8, ptr %58, align 1, !tbaa !11
  %61 = zext i8 %60 to i32
  store i32 %61, ptr %10, align 4, !tbaa !12
  store i32 0, ptr %7, align 4, !tbaa !12
  br label %77

62:                                               ; preds = %45
  br label %63

63:                                               ; preds = %16, %62
  %64 = load i32, ptr %7, align 4, !tbaa !12
  %65 = icmp ugt i32 %64, 191
  br i1 %65, label %66, label %75

66:                                               ; preds = %63
  store i32 128, ptr %11, align 4, !tbaa !12
  store i32 128, ptr %8, align 4, !tbaa !12
  %67 = load i32, ptr %7, align 4, !tbaa !12
  %68 = and i32 %67, 31
  %69 = or i32 128, %68
  store i32 %69, ptr %9, align 4, !tbaa !12
  %70 = load ptr, ptr %5, align 8, !tbaa !4
  %71 = load ptr, ptr %70, align 8, !tbaa !9
  %72 = getelementptr inbounds nuw i8, ptr %71, i32 1
  store ptr %72, ptr %70, align 8, !tbaa !9
  %73 = load i8, ptr %71, align 1, !tbaa !11
  %74 = zext i8 %73 to i32
  store i32 %74, ptr %10, align 4, !tbaa !12
  store i32 0, ptr %7, align 4, !tbaa !12
  br label %77

75:                                               ; preds = %63
  br label %76

76:                                               ; preds = %16, %75
  store i32 -1, ptr %4, align 4
  store i32 1, ptr %12, align 4
  br label %120

77:                                               ; preds = %66, %48, %26
  %78 = load i32, ptr %8, align 4, !tbaa !12
  %79 = load i32, ptr %9, align 4, !tbaa !12
  %80 = xor i32 %78, %79
  %81 = load i32, ptr %10, align 4, !tbaa !12
  %82 = xor i32 %80, %81
  %83 = and i32 192, %82
  %84 = icmp ne i32 128, %83
  br i1 %84, label %85, label %86

85:                                               ; preds = %77
  store i32 -1, ptr %4, align 4
  store i32 1, ptr %12, align 4
  br label %120

86:                                               ; preds = %77
  %87 = load i32, ptr %8, align 4, !tbaa !12
  %88 = and i32 %87, 63
  store i32 %88, ptr %8, align 4, !tbaa !12
  %89 = load i32, ptr %9, align 4, !tbaa !12
  %90 = and i32 %89, 63
  store i32 %90, ptr %9, align 4, !tbaa !12
  %91 = load i32, ptr %10, align 4, !tbaa !12
  %92 = and i32 %91, 63
  store i32 %92, ptr %10, align 4, !tbaa !12
  %93 = load i32, ptr %7, align 4, !tbaa !12
  %94 = shl i32 %93, 18
  %95 = load i32, ptr %8, align 4, !tbaa !12
  %96 = shl i32 %95, 12
  %97 = or i32 %94, %96
  %98 = load i32, ptr %9, align 4, !tbaa !12
  %99 = shl i32 %98, 6
  %100 = or i32 %97, %99
  %101 = load i32, ptr %10, align 4, !tbaa !12
  %102 = or i32 %100, %101
  store i32 %102, ptr %7, align 4, !tbaa !12
  %103 = load i32, ptr %7, align 4, !tbaa !12
  %104 = load i32, ptr %11, align 4, !tbaa !12
  %105 = icmp ult i32 %103, %104
  br i1 %105, label %106, label %107

106:                                              ; preds = %86
  store i32 -1, ptr %4, align 4
  store i32 1, ptr %12, align 4
  br label %120

107:                                              ; preds = %86
  %108 = load i32, ptr %7, align 4, !tbaa !12
  %109 = icmp ugt i32 %108, 1114111
  br i1 %109, label %110, label %111

110:                                              ; preds = %107
  store i32 -1, ptr %4, align 4
  store i32 1, ptr %12, align 4
  br label %120

111:                                              ; preds = %107
  %112 = load i32, ptr %7, align 4, !tbaa !12
  %113 = icmp uge i32 %112, 55296
  br i1 %113, label %114, label %118

114:                                              ; preds = %111
  %115 = load i32, ptr %7, align 4, !tbaa !12
  %116 = icmp ule i32 %115, 57343
  br i1 %116, label %117, label %118

117:                                              ; preds = %114
  store i32 -1, ptr %4, align 4
  store i32 1, ptr %12, align 4
  br label %120

118:                                              ; preds = %114, %111
  %119 = load i32, ptr %7, align 4, !tbaa !12
  store i32 %119, ptr %4, align 4
  store i32 1, ptr %12, align 4
  br label %120

120:                                              ; preds = %118, %117, %110, %106, %85, %76, %15
  call void @llvm.lifetime.end.p0(i64 4, ptr %11) #2
  call void @llvm.lifetime.end.p0(i64 4, ptr %10) #2
  call void @llvm.lifetime.end.p0(i64 4, ptr %9) #2
  call void @llvm.lifetime.end.p0(i64 4, ptr %8) #2
  %121 = load i32, ptr %4, align 4
  ret i32 %121
}

; Function Attrs: nounwind uwtable
define dso_local i32 @uv__utf8_decode1(ptr noundef %0, ptr noundef %1) #0 {
  %3 = alloca i32, align 4
  %4 = alloca ptr, align 8
  %5 = alloca ptr, align 8
  %6 = alloca i32, align 4
  %7 = alloca i32, align 4
  store ptr %0, ptr %4, align 8, !tbaa !4
  store ptr %1, ptr %5, align 8, !tbaa !9
  call void @llvm.lifetime.start.p0(i64 4, ptr %6) #2
  %8 = load ptr, ptr %4, align 8, !tbaa !4
  %9 = load ptr, ptr %8, align 8, !tbaa !9
  %10 = getelementptr inbounds nuw i8, ptr %9, i32 1
  store ptr %10, ptr %8, align 8, !tbaa !9
  %11 = load i8, ptr %9, align 1, !tbaa !11
  %12 = zext i8 %11 to i32
  store i32 %12, ptr %6, align 4, !tbaa !12
  %13 = load i32, ptr %6, align 4, !tbaa !12
  %14 = icmp ult i32 %13, 128
  br i1 %14, label %15, label %17

15:                                               ; preds = %2
  %16 = load i32, ptr %6, align 4, !tbaa !12
  store i32 %16, ptr %3, align 4
  store i32 1, ptr %7, align 4
  br label %22

17:                                               ; preds = %2
  %18 = load ptr, ptr %4, align 8, !tbaa !4
  %19 = load ptr, ptr %5, align 8, !tbaa !9
  %20 = load i32, ptr %6, align 4, !tbaa !12
  %21 = call i32 @uv__utf8_decode1_slow(ptr noundef %18, ptr noundef %19, i32 noundef %20)
  store i32 %21, ptr %3, align 4
  store i32 1, ptr %7, align 4
  br label %22

22:                                               ; preds = %17, %15
  call void @llvm.lifetime.end.p0(i64 4, ptr %6) #2
  %23 = load i32, ptr %3, align 4
  ret i32 %23
}

; Function Attrs: nounwind uwtable
define dso_local i64 @uv__idna_toascii(ptr noundef %0, ptr noundef %1, ptr noundef %2, ptr noundef %3) #0 {
  %5 = alloca i64, align 8
  %6 = alloca ptr, align 8
  %7 = alloca ptr, align 8
  %8 = alloca ptr, align 8
  %9 = alloca ptr, align 8
  %10 = alloca ptr, align 8
  %11 = alloca ptr, align 8
  %12 = alloca i32, align 4
  %13 = alloca ptr, align 8
  %14 = alloca i32, align 4
  %15 = alloca i32, align 4
  store ptr %0, ptr %6, align 8, !tbaa !9
  store ptr %1, ptr %7, align 8, !tbaa !9
  store ptr %2, ptr %8, align 8, !tbaa !9
  store ptr %3, ptr %9, align 8, !tbaa !9
  call void @llvm.lifetime.start.p0(i64 8, ptr %10) #2
  call void @llvm.lifetime.start.p0(i64 8, ptr %11) #2
  call void @llvm.lifetime.start.p0(i64 4, ptr %12) #2
  call void @llvm.lifetime.start.p0(i64 8, ptr %13) #2
  call void @llvm.lifetime.start.p0(i64 4, ptr %14) #2
  %16 = load ptr, ptr %6, align 8, !tbaa !9
  %17 = load ptr, ptr %7, align 8, !tbaa !9
  %18 = icmp eq ptr %16, %17
  br i1 %18, label %19, label %20

19:                                               ; preds = %4
  store i64 -22, ptr %5, align 8
  store i32 1, ptr %15, align 4
  br label %97

20:                                               ; preds = %4
  %21 = load ptr, ptr %8, align 8, !tbaa !9
  store ptr %21, ptr %13, align 8, !tbaa !9
  %22 = load ptr, ptr %6, align 8, !tbaa !9
  store ptr %22, ptr %10, align 8, !tbaa !9
  br label %23

23:                                               ; preds = %67, %46, %20
  %24 = load ptr, ptr %10, align 8, !tbaa !9
  %25 = load ptr, ptr %7, align 8, !tbaa !9
  %26 = icmp ult ptr %24, %25
  br i1 %26, label %27, label %69

27:                                               ; preds = %23
  %28 = load ptr, ptr %10, align 8, !tbaa !9
  store ptr %28, ptr %11, align 8, !tbaa !9
  %29 = load ptr, ptr %7, align 8, !tbaa !9
  %30 = call i32 @uv__utf8_decode1(ptr noundef %10, ptr noundef %29)
  store i32 %30, ptr %12, align 4, !tbaa !12
  %31 = load i32, ptr %12, align 4, !tbaa !12
  %32 = icmp eq i32 %31, -1
  br i1 %32, label %33, label %34

33:                                               ; preds = %27
  store i64 -22, ptr %5, align 8
  store i32 1, ptr %15, align 4
  br label %97

34:                                               ; preds = %27
  %35 = load i32, ptr %12, align 4, !tbaa !12
  %36 = icmp ne i32 %35, 46
  br i1 %36, label %37, label %50

37:                                               ; preds = %34
  %38 = load i32, ptr %12, align 4, !tbaa !12
  %39 = icmp ne i32 %38, 12290
  br i1 %39, label %40, label %49

40:                                               ; preds = %37
  %41 = load i32, ptr %12, align 4, !tbaa !12
  %42 = icmp ne i32 %41, 65294
  br i1 %42, label %43, label %48

43:                                               ; preds = %40
  %44 = load i32, ptr %12, align 4, !tbaa !12
  %45 = icmp ne i32 %44, 65377
  br i1 %45, label %46, label %47

46:                                               ; preds = %43
  br label %23, !llvm.loop !14

47:                                               ; preds = %43
  br label %48

48:                                               ; preds = %47, %40
  br label %49

49:                                               ; preds = %48, %37
  br label %50

50:                                               ; preds = %49, %34
  %51 = load ptr, ptr %6, align 8, !tbaa !9
  %52 = load ptr, ptr %11, align 8, !tbaa !9
  %53 = load ptr, ptr %9, align 8, !tbaa !9
  %54 = call i32 @uv__idna_toascii_label(ptr noundef %51, ptr noundef %52, ptr noundef %8, ptr noundef %53)
  store i32 %54, ptr %14, align 4, !tbaa !12
  %55 = load i32, ptr %14, align 4, !tbaa !12
  %56 = icmp slt i32 %55, 0
  br i1 %56, label %57, label %60

57:                                               ; preds = %50
  %58 = load i32, ptr %14, align 4, !tbaa !12
  %59 = sext i32 %58 to i64
  store i64 %59, ptr %5, align 8
  store i32 1, ptr %15, align 4
  br label %97

60:                                               ; preds = %50
  %61 = load ptr, ptr %8, align 8, !tbaa !9
  %62 = load ptr, ptr %9, align 8, !tbaa !9
  %63 = icmp ult ptr %61, %62
  br i1 %63, label %64, label %67

64:                                               ; preds = %60
  %65 = load ptr, ptr %8, align 8, !tbaa !9
  %66 = getelementptr inbounds nuw i8, ptr %65, i32 1
  store ptr %66, ptr %8, align 8, !tbaa !9
  store i8 46, ptr %65, align 1, !tbaa !11
  br label %67

67:                                               ; preds = %64, %60
  %68 = load ptr, ptr %10, align 8, !tbaa !9
  store ptr %68, ptr %6, align 8, !tbaa !9
  br label %23, !llvm.loop !14

69:                                               ; preds = %23
  %70 = load ptr, ptr %6, align 8, !tbaa !9
  %71 = load ptr, ptr %7, align 8, !tbaa !9
  %72 = icmp ult ptr %70, %71
  br i1 %72, label %73, label %84

73:                                               ; preds = %69
  %74 = load ptr, ptr %6, align 8, !tbaa !9
  %75 = load ptr, ptr %7, align 8, !tbaa !9
  %76 = load ptr, ptr %9, align 8, !tbaa !9
  %77 = call i32 @uv__idna_toascii_label(ptr noundef %74, ptr noundef %75, ptr noundef %8, ptr noundef %76)
  store i32 %77, ptr %14, align 4, !tbaa !12
  %78 = load i32, ptr %14, align 4, !tbaa !12
  %79 = icmp slt i32 %78, 0
  br i1 %79, label %80, label %83

80:                                               ; preds = %73
  %81 = load i32, ptr %14, align 4, !tbaa !12
  %82 = sext i32 %81 to i64
  store i64 %82, ptr %5, align 8
  store i32 1, ptr %15, align 4
  br label %97

83:                                               ; preds = %73
  br label %84

84:                                               ; preds = %83, %69
  %85 = load ptr, ptr %8, align 8, !tbaa !9
  %86 = load ptr, ptr %9, align 8, !tbaa !9
  %87 = icmp uge ptr %85, %86
  br i1 %87, label %88, label %89

88:                                               ; preds = %84
  store i64 -22, ptr %5, align 8
  store i32 1, ptr %15, align 4
  br label %97

89:                                               ; preds = %84
  %90 = load ptr, ptr %8, align 8, !tbaa !9
  %91 = getelementptr inbounds nuw i8, ptr %90, i32 1
  store ptr %91, ptr %8, align 8, !tbaa !9
  store i8 0, ptr %90, align 1, !tbaa !11
  %92 = load ptr, ptr %8, align 8, !tbaa !9
  %93 = load ptr, ptr %13, align 8, !tbaa !9
  %94 = ptrtoint ptr %92 to i64
  %95 = ptrtoint ptr %93 to i64
  %96 = sub i64 %94, %95
  store i64 %96, ptr %5, align 8
  store i32 1, ptr %15, align 4
  br label %97

97:                                               ; preds = %89, %88, %80, %57, %33, %19
  call void @llvm.lifetime.end.p0(i64 4, ptr %14) #2
  call void @llvm.lifetime.end.p0(i64 8, ptr %13) #2
  call void @llvm.lifetime.end.p0(i64 4, ptr %12) #2
  call void @llvm.lifetime.end.p0(i64 8, ptr %11) #2
  call void @llvm.lifetime.end.p0(i64 8, ptr %10) #2
  %98 = load i64, ptr %5, align 8
  ret i64 %98
}