; Function Attrs: nofree norecurse nosync nounwind memory(write, argmem: readwrite, inaccessiblemem: none) uwtable
define dso_local i64 @uv__idna_toascii(ptr noundef %0, ptr noundef %1, ptr noundef %2, ptr noundef %3) local_unnamed_addr #1 {
  %5 = alloca ptr, align 8
  store ptr %2, ptr %5, align 8, !tbaa !4
  %6 = icmp eq ptr %0, %1
  br i1 %6, label %uv__utf8_decode1.exit.thread, label %.preheader

.preheader:                                       ; preds = %4
  %7 = ptrtoint ptr %1 to i64
  br label %.outer

.outer:                                           ; preds = %.outer.backedge, %.preheader
  %8 = phi ptr [ %2, %.preheader ], [ %.be, %.outer.backedge ]
  %.041.ph = phi ptr [ %0, %.preheader ], [ %.2, %.outer.backedge ]
  br label %9

9:                                                ; preds = %.outer, %uv__utf8_decode1.exit
  %.041 = phi ptr [ %.2, %uv__utf8_decode1.exit ], [ %.041.ph, %.outer ]
  %10 = icmp ult ptr %.041, %1
  br i1 %10, label %11, label %74

11:                                               ; preds = %9
  %12 = getelementptr inbounds nuw i8, ptr %.041, i64 1
  %13 = load i8, ptr %.041, align 1, !tbaa !9
  %14 = zext i8 %13 to i32
  %15 = icmp sgt i8 %13, -1
  br i1 %15, label %uv__utf8_decode1.exit, label %16

16:                                               ; preds = %11
  %17 = icmp samesign ugt i8 %13, -9
  br i1 %17, label %uv__utf8_decode1.exit.thread, label %18

18:                                               ; preds = %16
  %19 = ptrtoint ptr %12 to i64
  %20 = sub i64 %7, %19
  switch i64 %20, label %21 [
    i64 2, label %33
    i64 1, label %41
    i64 0, label %uv__utf8_decode1.exit.thread
  ]

21:                                               ; preds = %18
  %22 = icmp samesign ugt i8 %13, -17
  br i1 %22, label %23, label %33

23:                                               ; preds = %21
  %24 = getelementptr inbounds nuw i8, ptr %.041, i64 2
  %25 = load i8, ptr %12, align 1, !tbaa !9
  %26 = zext i8 %25 to i32
  %27 = getelementptr inbounds nuw i8, ptr %.041, i64 3
  %28 = load i8, ptr %24, align 1, !tbaa !9
  %29 = zext i8 %28 to i32
  %30 = getelementptr inbounds nuw i8, ptr %.041, i64 4
  %31 = shl nuw nsw i32 %14, 18
  %32 = and i32 %31, 1835008
  br label %46

33:                                               ; preds = %21, %18
  %34 = icmp samesign ugt i8 %13, -33
  br i1 %34, label %35, label %41

35:                                               ; preds = %33
  %36 = and i32 %14, 143
  %37 = getelementptr inbounds nuw i8, ptr %.041, i64 2
  %38 = load i8, ptr %12, align 1, !tbaa !9
  %39 = zext i8 %38 to i32
  %40 = getelementptr inbounds nuw i8, ptr %.041, i64 3
  br label %46

41:                                               ; preds = %33, %18
  %42 = icmp samesign ugt i8 %13, -65
  br i1 %42, label %43, label %uv__utf8_decode1.exit.thread

43:                                               ; preds = %41
  %44 = and i32 %14, 159
  %45 = getelementptr inbounds nuw i8, ptr %.041, i64 2
  br label %46

46:                                               ; preds = %43, %35, %23
  %.1 = phi ptr [ %30, %23 ], [ %40, %35 ], [ %45, %43 ]
  %.035.i.i = phi i32 [ %32, %23 ], [ 0, %35 ], [ 0, %43 ]
  %.034.i.i = phi i32 [ %26, %23 ], [ %36, %35 ], [ 128, %43 ]
  %.033.i.i = phi i32 [ %29, %23 ], [ %39, %35 ], [ %44, %43 ]
  %.032.in.in.i.i = phi ptr [ %27, %23 ], [ %37, %35 ], [ %12, %43 ]
  %.0.i.i = phi i32 [ 65536, %23 ], [ 2048, %35 ], [ 128, %43 ]
  %.032.in.i.i = load i8, ptr %.032.in.in.i.i, align 1, !tbaa !9
  %.032.i.i = zext i8 %.032.in.i.i to i32
  %47 = xor i32 %.033.i.i, %.034.i.i
  %48 = xor i32 %47, %.032.i.i
  %49 = and i32 %48, 192
  %.not.i.i = icmp eq i32 %49, 128
  br i1 %.not.i.i, label %50, label %uv__utf8_decode1.exit.thread

50:                                               ; preds = %46
  %51 = and i32 %.032.i.i, 63
  %52 = shl nuw nsw i32 %.034.i.i, 12
  %53 = and i32 %52, 258048
  %54 = or disjoint i32 %53, %.035.i.i
  %55 = shl nuw nsw i32 %.033.i.i, 6
  %56 = and i32 %55, 4032
  %57 = or disjoint i32 %56, %51
  %58 = or disjoint i32 %57, %54
  %59 = icmp samesign ult i32 %58, %.0.i.i
  %60 = icmp samesign ugt i32 %54, 1114111
  %or.cond39.i.i = select i1 %59, i1 true, i1 %60
  br i1 %or.cond39.i.i, label %uv__utf8_decode1.exit.thread, label %61

61:                                               ; preds = %50
  %62 = icmp samesign ugt i32 %58, 55295
  %63 = icmp samesign ult i32 %54, 57344
  %or.cond.i.i = select i1 %62, i1 %63, i1 false
  br i1 %or.cond.i.i, label %uv__utf8_decode1.exit.thread, label %uv__utf8_decode1.exit

uv__utf8_decode1.exit:                            ; preds = %61, %11
  %.2 = phi ptr [ %12, %11 ], [ %.1, %61 ]
  %.0.i = phi i32 [ %14, %11 ], [ %58, %61 ]
  switch i32 %.0.i, label %9 [
    i32 46, label %64
    i32 65377, label %64
    i32 65294, label %64
    i32 12290, label %64
  ]

64:                                               ; preds = %uv__utf8_decode1.exit, %uv__utf8_decode1.exit, %uv__utf8_decode1.exit, %uv__utf8_decode1.exit
  %65 = call fastcc i32 @uv__idna_toascii_label(ptr noundef %.041.ph, ptr noundef nonnull %.041, ptr noundef %5, ptr noundef %3)
  %66 = icmp slt i32 %65, 0
  br i1 %66, label %67, label %69

67:                                               ; preds = %64
  %68 = sext i32 %65 to i64
  br label %uv__utf8_decode1.exit.thread

69:                                               ; preds = %64
  %70 = load ptr, ptr %5, align 8, !tbaa !4
  %71 = icmp ult ptr %70, %3
  br i1 %71, label %72, label %.outer.backedge

72:                                               ; preds = %69
  %73 = getelementptr inbounds nuw i8, ptr %70, i64 1
  store ptr %73, ptr %5, align 8, !tbaa !4
  store i8 46, ptr %70, align 1, !tbaa !9
  br label %.outer.backedge

.outer.backedge:                                  ; preds = %72, %69
  %.be = phi ptr [ %73, %72 ], [ %70, %69 ]
  br label %.outer, !llvm.loop !10

74:                                               ; preds = %9
  %75 = icmp ult ptr %.041.ph, %1
  br i1 %75, label %76, label %81

76:                                               ; preds = %74
  %77 = call fastcc i32 @uv__idna_toascii_label(ptr noundef %.041.ph, ptr noundef nonnull %1, ptr noundef %5, ptr noundef %3)
  %78 = icmp slt i32 %77, 0
  br i1 %78, label %79, label %._crit_edge

._crit_edge:                                      ; preds = %76
  %.pre = load ptr, ptr %5, align 8, !tbaa !4
  br label %81

79:                                               ; preds = %76
  %80 = sext i32 %77 to i64
  br label %uv__utf8_decode1.exit.thread

81:                                               ; preds = %._crit_edge, %74
  %82 = phi ptr [ %.pre, %._crit_edge ], [ %8, %74 ]
  %.not = icmp ult ptr %82, %3
  br i1 %.not, label %83, label %uv__utf8_decode1.exit.thread

83:                                               ; preds = %81
  %84 = getelementptr inbounds nuw i8, ptr %82, i64 1
  store i8 0, ptr %82, align 1, !tbaa !9
  %85 = ptrtoint ptr %84 to i64
  %86 = ptrtoint ptr %2 to i64
  %87 = sub i64 %85, %86
  br label %uv__utf8_decode1.exit.thread

uv__utf8_decode1.exit.thread:                     ; preds = %61, %50, %46, %18, %41, %16, %81, %4, %83, %79, %67
  %.0 = phi i64 [ %68, %67 ], [ %80, %79 ], [ %87, %83 ], [ -22, %4 ], [ -22, %81 ], [ -22, %16 ], [ -22, %41 ], [ -22, %18 ], [ -22, %46 ], [ -22, %50 ], [ -22, %61 ]
  ret i64 %.0
}